(lp0
ccopy_reg
_reconstructor
p1
(cBeautifulSoup
BeautifulStoneSoup
p2
c__builtin__
object
p3
Ntp4
Rp5
(dp6
S'verbose'
p7
I0
sS'nextSibling'
p8
NsS'attrs'
p9
(lp10
sS'convertXMLEntities'
p11
I00
sS'containsSubstitutions'
p12
I00
sS'contents'
p13
(lp14
g1
(cBeautifulSoup
NavigableString
p15
c__builtin__
unicode
p16
VA program that Gov. Andrew M. Cuomo said would fire up the state\u2019s economy by offering tax breaks to businesses to expand here \u2014 and that has spent $47 million on advertising \u2014 is drawing questions from the state comptroller.
p17
tp18
Rp19
(dp20
g8
NsS'next'
p21
NsS'previousSibling'
p22
NsS'parent'
p23
g5
sS'previous'
p24
Nsbasg24
g19
sS'tagStack'
p25
(lp26
g5
asS'escapeUnrecognizedEntities'
p27
I01
sS'smartQuotesTo'
p28
NsS'nomoretags'
p29
I0
sg21
NsS'literal'
p30
I0
sS'isSelfClosing'
p31
I00
sS'hidden'
p32
I1
sg22
NsS'lineno'
p33
I1
sS'parseOnlyThese'
p34
NsS'fromEncoding'
p35
Nsg23
NsS'parserClass'
p36
g2
sS'convertHTMLEntities'
p37
I01
sS'_SGMLParser__starttag_text'
p38
NsS'offset'
p39
I0
sS'instanceSelfClosingTags'
p40
(dp41
NNssS'convertEntities'
p42
S'html'
p43
sS'stack'
p44
(lp45
sS'quoteStack'
p46
(lp47
sS'name'
p48
V[document]
p49
sS'markup'
p50
NsS'rawdata'
p51
V
p52
sS'lasttag'
p53
S'???'
p54
sS'currentTag'
p55
g5
sS'currentData'
p56
(lp57
sbag1
(g2
g3
Ntp58
Rp59
(dp60
S'declaredHTMLEncoding'
p61
Nsg7
I0
sg8
Nsg9
(lp62
sg11
I00
sg12
I00
sg13
(lp63
g1
(g15
g16
VDawn Sweeney, the president of the National Restaurant Association, opposes Gov. Andrew M. Cuomo\u2019s push for higher wages.
p64
tp65
Rp66
(dp67
g8
Nsg21
Nsg22
Nsg23
g59
sg24
Nsbasg24
g66
sg25
(lp68
g59
asg27
I01
sg28
Nsg29
I0
sg21
Nsg30
I0
sg31
I00
sg32
I1
sg22
Nsg33
I1
sg34
Nsg35
Nsg23
Nsg36
g2
sg37
I01
sg38
Nsg39
I0
sg40
(dp69
NNssg42
g43
sg44
(lp70
sg46
(lp71
sg48
g49
sg50
Nsg51
g52
sg53
g54
sS'originalEncoding'
p72
S'ascii'
p73
sg55
g59
sg56
(lp74
sbag1
(g2
g3
Ntp75
Rp76
(dp77
g7
I0
sg8
Nsg9
(lp78
sg11
I00
sg12
I00
sg13
(lp79
g1
(g15
g16
VMs. Lee divulged the news on \u201cGood Morning America,\u201d saying she would have a double mastectomy this week.
p80
tp81
Rp82
(dp83
g8
Nsg21
Nsg22
Nsg23
g76
sg24
Nsbasg24
g82
sg25
(lp84
g76
asg27
I01
sg28
Nsg29
I0
sg21
Nsg30
I0
sg31
I00
sg32
I1
sg22
Nsg33
I1
sg34
Nsg35
Nsg23
Nsg36
g2
sg37
I01
sg38
Nsg39
I0
sg40
(dp85
NNssg42
g43
sg44
(lp86
sg46
(lp87
sg48
g49
sg50
Nsg51
g52
sg53
g54
sg55
g76
sg56
(lp88
sbag1
(g2
g3
Ntp89
Rp90
(dp91
g61
Nsg7
I0
sg8
Nsg9
(lp92
sg11
I00
sg12
I00
sg13
(lp93
g1
(g15
g16
VSandra Lee, a television chef and longtime girlfriend of New York Governor Andrew Cuomo, has been diagnosed with breast cancer, and the governor will be taking time off to be with her,  his office announced on Tuesday.
p94
tp95
Rp96
(dp97
g8
Nsg21
Nsg22
Nsg23
g90
sg24
Nsbasg24
g96
sg25
(lp98
g90
asg27
I01
sg28
Nsg29
I0
sg21
Nsg30
I0
sg31
I00
sg32
I1
sg22
Nsg33
I1
sg34
Nsg35
Nsg23
Nsg36
g2
sg37
I01
sg38
Nsg39
I0
sg40
(dp99
NNssg42
g43
sg44
(lp100
sg46
(lp101
sg48
g49
sg50
Nsg51
g52
sg53
g54
sg72
g73
sg55
g90
sg56
(lp102
sbag1
(g2
g3
Ntp103
Rp104
(dp105
g7
I0
sg8
Nsg9
(lp106
sg11
I00
sg12
I00
sg13
(lp107
g1
(g15
g16
VGov. Andrew M. Cuomo\u2019s proposed policies, which are already in place at New York\u2019s public colleges, would require private colleges to adopt \u201caffirmative consent\u201d as the standard of behavior.
p108
tp109
Rp110
(dp111
g8
Nsg21
Nsg22
Nsg23
g104
sg24
Nsbasg24
g110
sg25
(lp112
g104
asg27
I01
sg28
Nsg29
I0
sg21
Nsg30
I0
sg31
I00
sg32
I1
sg22
Nsg33
I1
sg34
Nsg35
Nsg23
Nsg36
g2
sg37
I01
sg38
Nsg39
I0
sg40
(dp113
NNssg42
g43
sg44
(lp114
sg46
(lp115
sg48
g49
sg50
Nsg51
g52
sg53
g54
sg55
g104
sg56
(lp116
sbag1
(g2
g3
Ntp117
Rp118
(dp119
g61
Nsg7
I0
sg8
Nsg9
(lp120
sg11
I00
sg12
I00
sg13
(lp121
g1
(g15
g16
VNew York Governor Andrew Cuomo introduced emergency measures to protect nail salon workers on Monday, after a New York Times investigative report uncovered slave-like working conditions and pay for workers, most of whom are immigrants.
p122
tp123
Rp124
(dp125
g8
Nsg21
Nsg22
Nsg23
g118
sg24
Nsbasg24
g124
sg25
(lp126
g118
asg27
I01
sg28
Nsg29
I0
sg21
Nsg30
I0
sg31
I00
sg32
I1
sg22
Nsg33
I1
sg34
Nsg35
Nsg23
Nsg36
g2
sg37
I01
sg38
Nsg39
I0
sg40
(dp127
NNssg42
g43
sg44
(lp128
sg46
(lp129
sg48
g49
sg50
Nsg51
g52
sg53
g54
sg72
g73
sg55
g118
sg56
(lp130
sbag1
(g2
g3
Ntp131
Rp132
(dp133
g61
Nsg7
I0
sg8
Nsg9
(lp134
sg11
I00
sg12
I00
sg13
(lp135
g1
(g15
g16
VGov. Andrew Cuomo is creating a task force to conduct investigations into nail salons around New York, following a report of widespread exploitation of workers.
p136
tp137
Rp138
(dp139
g8
Nsg21
Nsg22
Nsg23
g132
sg24
Nsbasg24
g138
sg25
(lp140
g132
asg27
I01
sg28
Nsg29
I0
sg21
Nsg30
I0
sg31
I00
sg32
I1
sg22
Nsg33
I1
sg34
Nsg35
Nsg23
Nsg36
g2
sg37
I01
sg38
Nsg39
I0
sg40
(dp141
NNssg42
g43
sg44
(lp142
sg46
(lp143
sg48
g49
sg50
Nsg51
g52
sg53
g54
sg72
g73
sg55
g132
sg56
(lp144
sbag1
(g2
g3
Ntp145
Rp146
(dp147
g61
Nsg7
I0
sg8
Nsg9
(lp148
sg11
I00
sg12
I00
sg13
(lp149
g1
(g15
g16
VPart of a New York nuclear power plant remains offline as cleanup continues of transformer fluid that leaked into the Hudson River.
p150
tp151
Rp152
(dp153
g8
Nsg21
Nsg22
Nsg23
g146
sg24
Nsbasg24
g152
sg25
(lp154
g146
asg27
I01
sg28
Nsg29
I0
sg21
Nsg30
I0
sg31
I00
sg32
I1
sg22
Nsg33
I1
sg34
Nsg35
Nsg23
Nsg36
g2
sg37
I01
sg38
Nsg39
I0
sg40
(dp155
NNssg42
g43
sg44
(lp156
sg46
(lp157
sg48
g49
sg50
Nsg51
g52
sg53
g54
sg72
g73
sg55
g146
sg56
(lp158
sbag1
(g2
g3
Ntp159
Rp160
(dp161
g61
Nsg7
I0
sg8
Nsg9
(lp162
sg11
I00
sg12
I00
sg13
(lp163
g1
(g15
g16
VActing in response to a series in The New York Times, the governor said a multiagency task force would investigate possible wage theft and health hazards salon by salon.
p164
tp165
Rp166
(dp167
g8
Nsg21
Nsg22
Nsg23
g160
sg24
Nsbasg24
g166
sg25
(lp168
g160
asg27
I01
sg28
Nsg29
I0
sg21
Nsg30
I0
sg31
I00
sg32
I1
sg22
Nsg33
I1
sg34
Nsg35
Nsg23
Nsg36
g2
sg37
I01
sg38
Nsg39
I0
sg40
(dp169
NNssg42
g43
sg44
(lp170
sg46
(lp171
sg48
g49
sg50
Nsg51
g52
sg53
g54
sg72
g73
sg55
g160
sg56
(lp172
sbag1
(g2
g3
Ntp173
Rp174
(dp175
g61
Nsg7
I0
sg8
Nsg9
(lp176
sg11
I00
sg12
I00
sg13
(lp177
g1
(g15
g16
VEmergency crews were on the water near the nuclear plant trying to contain and clean up fluid that leaked from the reactor.
p178
tp179
Rp180
(dp181
g8
Nsg21
Nsg22
Nsg23
g174
sg24
Nsbasg24
g180
sg25
(lp182
g174
asg27
I01
sg28
Nsg29
I0
sg21
Nsg30
I0
sg31
I00
sg32
I1
sg22
Nsg33
I1
sg34
Nsg35
Nsg23
Nsg36
g2
sg37
I01
sg38
Nsg39
I0
sg40
(dp183
NNssg42
g43
sg44
(lp184
sg46
(lp185
sg48
g49
sg50
Nsg51
g52
sg53
g54
sg72
g73
sg55
g174
sg56
(lp186
sbag1
(g2
g3
Ntp187
Rp188
(dp189
g7
I0
sg8
Nsg9
(lp190
sg11
I00
sg12
I00
sg13
(lp191
g1
(g15
g16
VGov. Andrew M. Cuomo\u2019s move to unilaterally increase hourly pay for thousands of workers in the state cheered many who recalled his previous lack of interest in the topic.
p192
tp193
Rp194
(dp195
g8
Nsg21
Nsg22
Nsg23
g188
sg24
Nsbasg24
g194
sg25
(lp196
g188
asg27
I01
sg28
Nsg29
I0
sg21
Nsg30
I0
sg31
I00
sg32
I1
sg22
Nsg33
I1
sg34
Nsg35
Nsg23
Nsg36
g2
sg37
I01
sg38
Nsg39
I0
sg40
(dp197
NNssg42
g43
sg44
(lp198
sg46
(lp199
sg48
g49
sg50
Nsg51
g52
sg53
g54
sg55
g188
sg56
(lp200
sbag1
(g2
g3
Ntp201
Rp202
(dp203
g61
Nsg7
I0
sg8
Nsg9
(lp204
sg11
I00
sg12
I00
sg13
(lp205
g1
(g15
g16
VOil leaked into the Hudson River on Sunday after a transformer fire and explosion a day earlier at the Indian Point nuclear plant north of New York City, and Governor Andrew Cuomo said he was concerned about environmental damage.
p206
tp207
Rp208
(dp209
g8
Nsg21
Nsg22
Nsg23
g202
sg24
Nsbasg24
g208
sg25
(lp210
g202
asg27
I01
sg28
Nsg29
I0
sg21
Nsg30
I0
sg31
I00
sg32
I1
sg22
Nsg33
I1
sg34
Nsg35
Nsg23
Nsg36
g2
sg37
I01
sg38
Nsg39
I0
sg40
(dp211
NNssg42
g43
sg44
(lp212
sg46
(lp213
sg48
g49
sg50
Nsg51
g52
sg53
g54
sg72
g73
sg55
g202
sg56
(lp214
sbag1
(g2
g3
Ntp215
Rp216
(dp217
g61
Nsg7
I0
sg8
Nsg9
(lp218
sg11
I00
sg12
I00
sg13
(lp219
g1
(g15
g16
VA transformer failed at the Indian Point nuclear power plant in suburban New York, causing a fire that forced an automatic shutdown of a reactor. The fire was quickly extinguished and the reactor was deemed safe and stable, said a spokesman for owner Entergy Corp.
p220
tp221
Rp222
(dp223
g8
Nsg21
Nsg22
Nsg23
g216
sg24
Nsbasg24
g222
sg25
(lp224
g216
asg27
I01
sg28
Nsg29
I0
sg21
Nsg30
I0
sg31
I00
sg32
I1
sg22
Nsg33
I1
sg34
Nsg35
Nsg23
Nsg36
g2
sg37
I01
sg38
Nsg39
I0
sg40
(dp225
NNssg42
g43
sg44
(lp226
sg46
(lp227
sg48
g49
sg50
Nsg51
g52
sg53
g54
sg72
g73
sg55
g216
sg56
(lp228
sbag1
(g2
g3
Ntp229
Rp230
(dp231
g61
Nsg7
I0
sg8
Nsg9
(lp232
sg11
I00
sg12
I00
sg13
(lp233
g1
(g15
g16
VNew York Governor Andrew Cuomo says a transformer fire that caused the shut-down of nuclear plant unit north of New York City was a "relatively minor situation". Rough Cut (no reporter narration).
p234
tp235
Rp236
(dp237
g8
Nsg21
Nsg22
Nsg23
g230
sg24
Nsbasg24
g236
sg25
(lp238
g230
asg27
I01
sg28
Nsg29
I0
sg21
Nsg30
I0
sg31
I00
sg32
I1
sg22
Nsg33
I1
sg34
Nsg35
Nsg23
Nsg36
g2
sg37
I01
sg38
Nsg39
I0
sg40
(dp239
NNssg42
g43
sg44
(lp240
sg46
(lp241
sg48
g49
sg50
Nsg51
g52
sg53
g54
sg72
g73
sg55
g230
sg56
(lp242
sbag1
(g2
g3
Ntp243
Rp244
(dp245
g61
Nsg7
I0
sg8
Nsg9
(lp246
sg11
I00
sg12
I00
sg13
(lp247
g1
(g15
g16
VGov. Andrew Cuomo has an opportunity to provide some relief to New Yorkers living in rent-regulated apartments.
p248
tp249
Rp250
(dp251
g8
Nsg21
Nsg22
Nsg23
g244
sg24
Nsbasg24
g250
sg25
(lp252
g244
asg27
I01
sg28
Nsg29
I0
sg21
Nsg30
I0
sg31
I00
sg32
I1
sg22
Nsg33
I1
sg34
Nsg35
Nsg23
Nsg36
g2
sg37
I01
sg38
Nsg39
I0
sg40
(dp253
NNssg42
g43
sg44
(lp254
sg46
(lp255
sg48
g49
sg50
Nsg51
g52
sg53
g54
sg72
g73
sg55
g244
sg56
(lp256
sbag1
(g2
g3
Ntp257
Rp258
(dp259
g7
I0
sg8
Nsg9
(lp260
sg11
I00
sg12
I00
sg13
(lp261
g1
(g15
g16
VIt\u2019s beyond saving. And J.F.K. and Newark can absorb its passengers.
p262
tp263
Rp264
(dp265
g8
Nsg21
Nsg22
Nsg23
g258
sg24
Nsbasg24
g264
sg25
(lp266
g258
asg27
I01
sg28
Nsg29
I0
sg21
Nsg30
I0
sg31
I00
sg32
I1
sg22
Nsg33
I1
sg34
Nsg35
Nsg23
Nsg36
g2
sg37
I01
sg38
Nsg39
I0
sg40
(dp267
NNssg42
g43
sg44
(lp268
sg46
(lp269
sg48
g49
sg50
Nsg51
g52
sg53
g54
sg55
g258
sg56
(lp270
sbag1
(g2
g3
Ntp271
Rp272
(dp273
g61
Nsg7
I0
sg8
Nsg9
(lp274
sg11
I00
sg12
I00
sg13
(lp275
g1
(g15
g16
VFamily, friends and fellow law enforcement officers will be mourning a New York Police Department officer at a wake on Long Island.
p276
tp277
Rp278
(dp279
g8
Nsg21
Nsg22
Nsg23
g272
sg24
Nsbasg24
g278
sg25
(lp280
g272
asg27
I01
sg28
Nsg29
I0
sg21
Nsg30
I0
sg31
I00
sg32
I1
sg22
Nsg33
I1
sg34
Nsg35
Nsg23
Nsg36
g2
sg37
I01
sg38
Nsg39
I0
sg40
(dp281
NNssg42
g43
sg44
(lp282
sg46
(lp283
sg48
g49
sg50
Nsg51
g52
sg53
g54
sg72
g73
sg55
g272
sg56
(lp284
sbag1
(g2
g3
Ntp285
Rp286
(dp287
g61
Nsg7
I0
sg8
Nsg9
(lp288
sg11
I00
sg12
I00
sg13
(lp289
g1
(g15
g16
VHousing programs and tax incentives would be overhauled to promote the construction of tens of thousands of units for poor New Yorkers, who are being priced out of the booming real estate market.
p290
tp291
Rp292
(dp293
g8
Nsg21
Nsg22
Nsg23
g286
sg24
Nsbasg24
g292
sg25
(lp294
g286
asg27
I01
sg28
Nsg29
I0
sg21
Nsg30
I0
sg31
I00
sg32
I1
sg22
Nsg33
I1
sg34
Nsg35
Nsg23
Nsg36
g2
sg37
I01
sg38
Nsg39
I0
sg40
(dp295
NNssg42
g43
sg44
(lp296
sg46
(lp297
sg48
g49
sg50
Nsg51
g52
sg53
g54
sg72
g73
sg55
g286
sg56
(lp298
sbag1
(g2
g3
Ntp299
Rp300
(dp301
g61
Nsg7
I0
sg8
Nsg9
(lp302
sg11
I00
sg12
I00
sg13
(lp303
g1
(g15
g16
VGov. Andrew M. Cuomo, in an Op-Ed article published by The New York Times, said he would ask the state labor commissioner to convene a panel to consider if the pay for thousands should go up.
p304
tp305
Rp306
(dp307
g8
Nsg21
Nsg22
Nsg23
g300
sg24
Nsbasg24
g306
sg25
(lp308
g300
asg27
I01
sg28
Nsg29
I0
sg21
Nsg30
I0
sg31
I00
sg32
I1
sg22
Nsg33
I1
sg34
Nsg35
Nsg23
Nsg36
g2
sg37
I01
sg38
Nsg39
I0
sg40
(dp309
NNssg42
g43
sg44
(lp310
sg46
(lp311
sg48
g49
sg50
Nsg51
g52
sg53
g54
sg72
g73
sg55
g300
sg56
(lp312
sbag1
(g2
g3
Ntp313
Rp314
(dp315
g61
Nsg7
I0
sg8
Nsg9
(lp316
sg11
I00
sg12
I00
sg13
(lp317
g1
(g15
g16
VNew York Governor Andrew Cuomo said on Wednesday he would create a so-called Wage Board, a move apparently designed to allow him to raise the minimum wage without the approval of state lawmakers.
p318
tp319
Rp320
(dp321
g8
Nsg21
Nsg22
Nsg23
g314
sg24
Nsbasg24
g320
sg25
(lp322
g314
asg27
I01
sg28
Nsg29
I0
sg21
Nsg30
I0
sg31
I00
sg32
I1
sg22
Nsg33
I1
sg34
Nsg35
Nsg23
Nsg36
g2
sg37
I01
sg38
Nsg39
I0
sg40
(dp323
NNssg42
g43
sg44
(lp324
sg46
(lp325
sg48
g49
sg50
Nsg51
g52
sg53
g54
sg72
g73
sg55
g314
sg56
(lp326
sbag1
(g2
g3
Ntp327
Rp328
(dp329
g61
Nsg7
I0
sg8
Nsg9
(lp330
sg11
I00
sg12
I00
sg13
(lp331
g1
(g15
g16
VMr. Skelos, 67, and his son, Adam B. Skelos, 32, are scheduled to appear in United States District Court in Manhattan to face complaints of conspiracy, extortion and bribe solicitation.
p332
tp333
Rp334
(dp335
g8
Nsg21
Nsg22
Nsg23
g328
sg24
Nsbasg24
g334
sg25
(lp336
g328
asg27
I01
sg28
Nsg29
I0
sg21
Nsg30
I0
sg31
I00
sg32
I1
sg22
Nsg33
I1
sg34
Nsg35
Nsg23
Nsg36
g2
sg37
I01
sg38
Nsg39
I0
sg40
(dp337
NNssg42
g43
sg44
(lp338
sg46
(lp339
sg48
g49
sg50
Nsg51
g52
sg53
g54
sg72
g73
sg55
g328
sg56
(lp340
sbag1
(g2
g3
Ntp341
Rp342
(dp343
g61
Nsg7
I0
sg8
Nsg9
(lp344
sg11
I00
sg12
I00
sg13
(lp345
g1
(g15
g16
VAn indictment released in New Jersey on Friday filled out specifics of the George Washington Bridge lane-closing scandal, and the delight three conspirators took in it.
p346
tp347
Rp348
(dp349
g8
Nsg21
Nsg22
Nsg23
g342
sg24
Nsbasg24
g348
sg25
(lp350
g342
asg27
I01
sg28
Nsg29
I0
sg21
Nsg30
I0
sg31
I00
sg32
I1
sg22
Nsg33
I1
sg34
Nsg35
Nsg23
Nsg36
g2
sg37
I01
sg38
Nsg39
I0
sg40
(dp351
NNssg42
g43
sg44
(lp352
sg46
(lp353
sg48
g49
sg50
Nsg51
g52
sg53
g54
sg72
g73
sg55
g342
sg56
(lp354
sbag1
(g2
g3
Ntp355
Rp356
(dp357
g61
Nsg7
I0
sg8
Nsg9
(lp358
sg11
I00
sg12
I00
sg13
(lp359
g1
(g15
g16
VNew York state Senate Majority Leader Dean Skelos, a Republican, and his son are expected to be arrested next week on federal corruption charges, The New York Times reported on Friday, citing unnamed sources.
p360
tp361
Rp362
(dp363
g8
Nsg21
Nsg22
Nsg23
g356
sg24
Nsbasg24
g362
sg25
(lp364
g356
asg27
I01
sg28
Nsg29
I0
sg21
Nsg30
I0
sg31
I00
sg32
I1
sg22
Nsg33
I1
sg34
Nsg35
Nsg23
Nsg36
g2
sg37
I01
sg38
Nsg39
I0
sg40
(dp365
NNssg42
g43
sg44
(lp366
sg46
(lp367
sg48
g49
sg50
Nsg51
g52
sg53
g54
sg72
g73
sg55
g356
sg56
(lp368
sbag1
(g2
g3
Ntp369
Rp370
(dp371
g61
Nsg7
I0
sg8
Nsg9
(lp372
sg11
I00
sg12
I00
sg13
(lp373
g1
(g15
g16
VFollowing is a timeline in the events surrounding the September 2013 closure of lanes leading to the George Washington Bridge and its fallout:
p374
tp375
Rp376
(dp377
g8
Nsg21
Nsg22
Nsg23
g370
sg24
Nsbasg24
g376
sg25
(lp378
g370
asg27
I01
sg28
Nsg29
I0
sg21
Nsg30
I0
sg31
I00
sg32
I1
sg22
Nsg33
I1
sg34
Nsg35
Nsg23
Nsg36
g2
sg37
I01
sg38
Nsg39
I0
sg40
(dp379
NNssg42
g43
sg44
(lp380
sg46
(lp381
sg48
g49
sg50
Nsg51
g52
sg53
g54
sg72
g73
sg55
g370
sg56
(lp382
sbag1
(g2
g3
Ntp383
Rp384
(dp385
g7
I0
sg8
Nsg9
(lp386
sg11
I00
sg12
I00
sg13
(lp387
g1
(g15
g16
VThe Central Terminal Building at La Guardia Airport, which has been derided as a \u201cthird world\u201d eyesore, should be transformed into a grand portal that welcomes travelers, agency officials said.
p388
tp389
Rp390
(dp391
g8
Nsg21
Nsg22
Nsg23
g384
sg24
Nsbasg24
g390
sg25
(lp392
g384
asg27
I01
sg28
Nsg29
I0
sg21
Nsg30
I0
sg31
I00
sg32
I1
sg22
Nsg33
I1
sg34
Nsg35
Nsg23
Nsg36
g2
sg37
I01
sg38
Nsg39
I0
sg40
(dp393
NNssg42
g43
sg44
(lp394
sg46
(lp395
sg48
g49
sg50
Nsg51
g52
sg53
g54
sg55
g384
sg56
(lp396
sbag1
(g2
g3
Ntp397
Rp398
(dp399
g61
Nsg7
I0
sg8
Nsg9
(lp400
sg11
I00
sg12
I00
sg13
(lp401
g1
(g15
g16
VIn an election to fill a vacant House seat, which the Staten Island district attorney, Daniel M. Donovan Jr., is favored to win, the Garner case has not been a central concern.
p402
tp403
Rp404
(dp405
g8
Nsg21
Nsg22
Nsg23
g398
sg24
Nsbasg24
g404
sg25
(lp406
g398
asg27
I01
sg28
Nsg29
I0
sg21
Nsg30
I0
sg31
I00
sg32
I1
sg22
Nsg33
I1
sg34
Nsg35
Nsg23
Nsg36
g2
sg37
I01
sg38
Nsg39
I0
sg40
(dp407
NNssg42
g43
sg44
(lp408
sg46
(lp409
sg48
g49
sg50
Nsg51
g52
sg53
g54
sg72
g73
sg55
g398
sg56
(lp410
sbaS' '
p411
ag1
(g2
g3
Ntp412
Rp413
(dp414
g7
I0
sg8
Nsg9
(lp415
sg11
I00
sg12
I00
sg13
(lp416
g1
(g15
g16
VGov. Andrew M. Cuomo\u2019s blueprint, including a package of new laws and a more aggressive use of antiretroviral drugs, brought cheers from some activists, if no guarantee it will come to fruition.
p417
tp418
Rp419
(dp420
g8
Nsg21
Nsg22
Nsg23
g413
sg24
Nsbasg24
g419
sg25
(lp421
g413
asg27
I01
sg28
Nsg29
I0
sg21
Nsg30
I0
sg31
I00
sg32
I1
sg22
Nsg33
I1
sg34
Nsg35
Nsg23
Nsg36
g2
sg37
I01
sg38
Nsg39
I0
sg40
(dp422
NNssg42
g43
sg44
(lp423
sg46
(lp424
sg48
g49
sg50
Nsg51
g52
sg53
g54
sg55
g413
sg56
(lp425
sbag1
(g2
g3
Ntp426
Rp427
(dp428
g61
Nsg7
I0
sg8
Nsg9
(lp429
sg11
I00
sg12
I00
sg13
(lp430
g1
(g15
g16
VProsecutors are investigating whether United Airlines created a commercial flight to win favor from David Samson, the chairman of the Port Authority of New York and New Jersey.
p431
tp432
Rp433
(dp434
g8
Nsg21
Nsg22
Nsg23
g427
sg24
Nsbasg24
g433
sg25
(lp435
g427
asg27
I01
sg28
Nsg29
I0
sg21
Nsg30
I0
sg31
I00
sg32
I1
sg22
Nsg33
I1
sg34
Nsg35
Nsg23
Nsg36
g2
sg37
I01
sg38
Nsg39
I0
sg40
(dp436
NNssg42
g43
sg44
(lp437
sg46
(lp438
sg48
g49
sg50
Nsg51
g52
sg53
g54
sg72
g73
sg55
g427
sg56
(lp439
sbag1
(g2
g3
Ntp440
Rp441
(dp442
g7
I0
sg8
Nsg9
(lp443
sg11
I00
sg12
I00
sg13
(lp444
g1
(g15
g16
VThe authority\u2019s chief financial officer said 15 percent increases may be necessary if New York State lawmakers do not provide funding for the agency\u2019s five-year capital plan.
p445
tp446
Rp447
(dp448
g8
Nsg21
Nsg22
Nsg23
g441
sg24
Nsbasg24
g447
sg25
(lp449
g441
asg27
I01
sg28
Nsg29
I0
sg21
Nsg30
I0
sg31
I00
sg32
I1
sg22
Nsg33
I1
sg34
Nsg35
Nsg23
Nsg36
g2
sg37
I01
sg38
Nsg39
I0
sg40
(dp450
NNssg42
g43
sg44
(lp451
sg46
(lp452
sg48
g49
sg50
Nsg51
g52
sg53
g54
sg55
g441
sg56
(lp453
sbag1
(g2
g3
Ntp454
Rp455
(dp456
g61
Nsg7
I0
sg8
Nsg9
(lp457
sg11
I00
sg12
I00
sg13
(lp458
g1
(g15
g16
VThis week in Latin America mother nature took a turn for the worse as the Calbuco volcano erupted after almost 5 decades of inactivity. It billowed a huge ash cloud over a sparsely populated, mountainous area in southern Chile. Authorities ordered the evacuation of the inhabitants of nearby communities. The head of the national mining and geology service said the volcano's eruptive process could last weeks or even months.
p459
tp460
Rp461
(dp462
g8
Nsg21
Nsg22
Nsg23
g455
sg24
Nsbasg24
g461
sg25
(lp463
g455
asg27
I01
sg28
Nsg29
I0
sg21
Nsg30
I0
sg31
I00
sg32
I1
sg22
Nsg33
I1
sg34
Nsg35
Nsg23
Nsg36
g2
sg37
I01
sg38
Nsg39
I0
sg40
(dp464
NNssg42
g43
sg44
(lp465
sg46
(lp466
sg48
g49
sg50
Nsg51
g52
sg53
g54
sg72
g73
sg55
g455
sg56
(lp467
sbag1
(g2
g3
Ntp468
Rp469
(dp470
g7
I0
sg8
Nsg9
(lp471
sg11
I00
sg12
I00
sg13
(lp472
g1
(g15
g16
VGov. Andrew M. Cuomo said he would reappoint Thomas F. Prendergast to lead the New York region\u2019s transit agency, a move that needs legislative approval.
p473
tp474
Rp475
(dp476
g8
Nsg21
Nsg22
Nsg23
g469
sg24
Nsbasg24
g475
sg25
(lp477
g469
asg27
I01
sg28
Nsg29
I0
sg21
Nsg30
I0
sg31
I00
sg32
I1
sg22
Nsg33
I1
sg34
Nsg35
Nsg23
Nsg36
g2
sg37
I01
sg38
Nsg39
I0
sg40
(dp478
NNssg42
g43
sg44
(lp479
sg46
(lp480
sg48
g49
sg50
Nsg51
g52
sg53
g54
sg55
g469
sg56
(lp481
sbag1
(g2
g3
Ntp482
Rp483
(dp484
g61
Nsg7
I0
sg8
Nsg9
(lp485
sg11
I00
sg12
I00
sg13
(lp486
g1
(g15
g16
VA plan to raise money through bridge tolls to help upgrade the aging subway system is gaining support.
p487
tp488
Rp489
(dp490
g8
Nsg21
Nsg22
Nsg23
g483
sg24
Nsbasg24
g489
sg25
(lp491
g483
asg27
I01
sg28
Nsg29
I0
sg21
Nsg30
I0
sg31
I00
sg32
I1
sg22
Nsg33
I1
sg34
Nsg35
Nsg23
Nsg36
g2
sg37
I01
sg38
Nsg39
I0
sg40
(dp492
NNssg42
g43
sg44
(lp493
sg46
(lp494
sg48
g49
sg50
Nsg51
g52
sg53
g54
sg72
g73
sg55
g483
sg56
(lp495
sbag1
(g2
g3
Ntp496
Rp497
(dp498
g61
Nsg7
I0
sg8
Nsg9
(lp499
sg11
I00
sg12
I00
sg13
(lp500
g1
(g15
g16
VThe Metropolitan Transportation Authority, the nation's largest commuter rail network, is on track to receive a nearly $1 billion federal loan for safety improvements meant to avoid a repeat of a 2013 derailment that killed four people, Gov. Andrew Cuomo announced Friday.
p501
tp502
Rp503
(dp504
g8
Nsg21
Nsg22
Nsg23
g497
sg24
Nsbasg24
g503
sg25
(lp505
g497
asg27
I01
sg28
Nsg29
I0
sg21
Nsg30
I0
sg31
I00
sg32
I1
sg22
Nsg33
I1
sg34
Nsg35
Nsg23
Nsg36
g2
sg37
I01
sg38
Nsg39
I0
sg40
(dp506
NNssg42
g43
sg44
(lp507
sg46
(lp508
sg48
g49
sg50
Nsg51
g52
sg53
g54
sg72
g73
sg55
g497
sg56
(lp509
sbag1
(g2
g3
Ntp510
Rp511
(dp512
g61
Nsg7
I0
sg8
Nsg9
(lp513
sg11
I00
sg12
I00
sg13
(lp514
g1
(g15
g16
VAmid a crumbling Havana, Gov. Andrew M. Cuomo and his delegation from New York sought business opportunities for the future.
p515
tp516
Rp517
(dp518
g8
Nsg21
Nsg22
Nsg23
g511
sg24
Nsbasg24
g517
sg25
(lp519
g511
asg27
I01
sg28
Nsg29
I0
sg21
Nsg30
I0
sg31
I00
sg32
I1
sg22
Nsg33
I1
sg34
Nsg35
Nsg23
Nsg36
g2
sg37
I01
sg38
Nsg39
I0
sg40
(dp520
NNssg42
g43
sg44
(lp521
sg46
(lp522
sg48
g49
sg50
Nsg51
g52
sg53
g54
sg72
g73
sg55
g511
sg56
(lp523
sbag1
(g2
g3
Ntp524
Rp525
(dp526
g61
Nsg7
I0
sg8
Nsg9
(lp527
sg11
I00
sg12
I00
sg13
(lp528
g1
(g15
g16
VNew York City-based software company Infor has identified a Cuban partner and reached an agreement to resell software in Cuba, Chief Executive Officer Charles Phillips said on Tuesday.
p529
tp530
Rp531
(dp532
g8
Nsg21
Nsg22
Nsg23
g525
sg24
Nsbasg24
g531
sg25
(lp533
g525
asg27
I01
sg28
Nsg29
I0
sg21
Nsg30
I0
sg31
I00
sg32
I1
sg22
Nsg33
I1
sg34
Nsg35
Nsg23
Nsg36
g2
sg37
I01
sg38
Nsg39
I0
sg40
(dp534
NNssg42
g43
sg44
(lp535
sg46
(lp536
sg48
g49
sg50
Nsg51
g52
sg53
g54
sg72
g73
sg55
g525
sg56
(lp537
sbag1
(g2
g3
Ntp538
Rp539
(dp540
g61
Nsg7
I0
sg8
Nsg9
(lp541
sg11
I00
sg12
I00
sg13
(lp542
g1
(g15
g16
VThe Roswell Park Cancer Center of Buffalo, New York, on Tuesday signed an agreement with Cuba's Center for Molecular Immunology (CIM) to develop a lung cancer vaccine with a clinical trial in the United States, Roswell Chief Executive Officer Candace Johnson said.
p543
tp544
Rp545
(dp546
g8
Nsg21
Nsg22
Nsg23
g539
sg24
Nsbasg24
g545
sg25
(lp547
g539
asg27
I01
sg28
Nsg29
I0
sg21
Nsg30
I0
sg31
I00
sg32
I1
sg22
Nsg33
I1
sg34
Nsg35
Nsg23
Nsg36
g2
sg37
I01
sg38
Nsg39
I0
sg40
(dp548
NNssg42
g43
sg44
(lp549
sg46
(lp550
sg48
g49
sg50
Nsg51
g52
sg53
g54
sg72
g73
sg55
g539
sg56
(lp551
sbag411
ag1
(g2
g3
Ntp552
Rp553
(dp554
g61
Nsg7
I0
sg8
Nsg9
(lp555
sg11
I00
sg12
I00
sg13
(lp556
g1
(g15
g16
VOften painted as obstacles to improving schools, the unions now find common ground with parents who object to testing and conservatives who oppose the Common Core.
p557
tp558
Rp559
(dp560
g8
Nsg21
Nsg22
Nsg23
g553
sg24
Nsbasg24
g559
sg25
(lp561
g553
asg27
I01
sg28
Nsg29
I0
sg21
Nsg30
I0
sg31
I00
sg32
I1
sg22
Nsg33
I1
sg34
Nsg35
Nsg23
Nsg36
g2
sg37
I01
sg38
Nsg39
I0
sg40
(dp562
NNssg42
g43
sg44
(lp563
sg46
(lp564
sg48
g49
sg50
Nsg51
g52
sg53
g54
sg72
g73
sg55
g553
sg56
(lp565
sbag1
(g2
g3
Ntp566
Rp567
(dp568
g61
Nsg7
I0
sg8
Nsg9
(lp569
sg11
I00
sg12
I00
sg13
(lp570
g1
(g15
g16
VJacob Ter Veldhuis\u2019s multimedia musical drama had its New York debut at the Metropolitan Museum of Art.
p571
tp572
Rp573
(dp574
g8
Nsg21
Nsg22
Nsg23
g567
sg24
Nsbasg24
g573
sg25
(lp575
g567
asg27
I01
sg28
Nsg29
I0
sg21
Nsg30
I0
sg31
I00
sg32
I1
sg22
Nsg33
I1
sg34
Nsg35
Nsg23
Nsg36
g2
sg37
I01
sg38
Nsg39
I0
sg40
(dp576
NNssg42
g43
sg44
(lp577
sg46
(lp578
sg48
g49
sg50
Nsg51
g52
sg53
g54
sg72
g73
sg55
g567
sg56
(lp579
sbag1
(g2
g3
Ntp580
Rp581
(dp582
g7
I0
sg8
Nsg9
(lp583
sg11
I00
sg12
I00
sg13
(lp584
g1
(g15
g16
VGov. Andrew M. Cuomo\u2019s enthusiasm was hard to miss, but the obstacles of abject poverty and a poorly developed infrastructure were equally apparent.
p585
tp586
Rp587
(dp588
g8
Nsg21
Nsg22
Nsg23
g581
sg24
Nsbasg24
g587
sg25
(lp589
g581
asg27
I01
sg28
Nsg29
I0
sg21
Nsg30
I0
sg31
I00
sg32
I1
sg22
Nsg33
I1
sg34
Nsg35
Nsg23
Nsg36
g2
sg37
I01
sg38
Nsg39
I0
sg40
(dp590
NNssg42
g43
sg44
(lp591
sg46
(lp592
sg48
g49
sg50
Nsg51
g52
sg53
g54
sg55
g581
sg56
(lp593
sbag1
(g2
g3
Ntp594
Rp595
(dp596
g61
Nsg7
I0
sg8
Nsg9
(lp597
sg11
I00
sg12
I00
sg13
(lp598
g1
(g15
g16
VMr. Heastie was able to hold onto a home that prosecutors said his mother had bought with embezzled money; selling it years later brought what appears to be the only significant financial gain of his life.
p599
tp600
Rp601
(dp602
g8
Nsg21
Nsg22
Nsg23
g595
sg24
Nsbasg24
g601
sg25
(lp603
g595
asg27
I01
sg28
Nsg29
I0
sg21
Nsg30
I0
sg31
I00
sg32
I1
sg22
Nsg33
I1
sg34
Nsg35
Nsg23
Nsg36
g2
sg37
I01
sg38
Nsg39
I0
sg40
(dp604
NNssg42
g43
sg44
(lp605
sg46
(lp606
sg48
g49
sg50
Nsg51
g52
sg53
g54
sg72
g73
sg55
g595
sg56
(lp607
sbag1
(g2
g3
Ntp608
Rp609
(dp610
g61
Nsg7
I0
sg8
Nsg9
(lp611
sg11
I00
sg12
I00
sg13
(lp612
g1
(g15
g16
VNew York Governor Andrew Cuomo meets Cuban Cardinal Jaime Ortega on visit to Havana saying, "We wanted to come by and pay our respects." Rough Cut (no reporter narration).
p613
tp614
Rp615
(dp616
g8
Nsg21
Nsg22
Nsg23
g609
sg24
Nsbasg24
g615
sg25
(lp617
g609
asg27
I01
sg28
Nsg29
I0
sg21
Nsg30
I0
sg31
I00
sg32
I1
sg22
Nsg33
I1
sg34
Nsg35
Nsg23
Nsg36
g2
sg37
I01
sg38
Nsg39
I0
sg40
(dp618
NNssg42
g43
sg44
(lp619
sg46
(lp620
sg48
g49
sg50
Nsg51
g52
sg53
g54
sg72
g73
sg55
g609
sg56
(lp621
sbag1
(g2
g3
Ntp622
Rp623
(dp624
g61
Nsg7
I0
sg8
Nsg9
(lp625
sg11
I00
sg12
I00
sg13
(lp626
g1
(g15
g16
VNew York Governor Andrew Cuomo in Cuba says he is excited to "be part of this moment in history" as he hopes to drum up business for New York. Deborah Lutterbeck reports.
p627
tp628
Rp629
(dp630
g8
Nsg21
Nsg22
Nsg23
g623
sg24
Nsbasg24
g629
sg25
(lp631
g623
asg27
I01
sg28
Nsg29
I0
sg21
Nsg30
I0
sg31
I00
sg32
I1
sg22
Nsg33
I1
sg34
Nsg35
Nsg23
Nsg36
g2
sg37
I01
sg38
Nsg39
I0
sg40
(dp632
NNssg42
g43
sg44
(lp633
sg46
(lp634
sg48
g49
sg50
Nsg51
g52
sg53
g54
sg72
g73
sg55
g623
sg56
(lp635
sbag1
(g2
g3
Ntp636
Rp637
(dp638
g61
Nsg7
I0
sg8
Nsg9
(lp639
sg11
I00
sg12
I00
sg13
(lp640
g1
(g15
g16
VNew York Governor Andrew Cuomo met senior Cuban officials in Havana on Monday as the head of a high-powered business delegation looking to take advantage of President Barack Obama's easing of restrictions with the Communist-led island.     
p641
tp642
Rp643
(dp644
g8
Nsg21
Nsg22
Nsg23
g637
sg24
Nsbasg24
g643
sg25
(lp645
g637
asg27
I01
sg28
Nsg29
I0
sg21
Nsg30
I0
sg31
I00
sg32
I1
sg22
Nsg33
I1
sg34
Nsg35
Nsg23
Nsg36
g2
sg37
I01
sg38
Nsg39
I0
sg40
(dp646
NNssg42
g43
sg44
(lp647
sg46
(lp648
sg48
g49
sg50
Nsg51
g52
sg53
g54
sg72
g73
sg55
g637
sg56
(lp649
sbag1
(g2
g3
Ntp650
Rp651
(dp652
g61
Nsg7
I0
sg8
Nsg9
(lp653
sg11
I00
sg12
I00
sg13
(lp654
g1
(g15
g16
VCuban officials and New York business executives are exploring ways for companies to do business on the communist-run island despite the longstanding U.S. embargo that makes most trade and investment illegal, New York Gov. Andrew Cuomo said Monday.
p655
tp656
Rp657
(dp658
g8
Nsg21
Nsg22
Nsg23
g651
sg24
Nsbasg24
g657
sg25
(lp659
g651
asg27
I01
sg28
Nsg29
I0
sg21
Nsg30
I0
sg31
I00
sg32
I1
sg22
Nsg33
I1
sg34
Nsg35
Nsg23
Nsg36
g2
sg37
I01
sg38
Nsg39
I0
sg40
(dp660
NNssg42
g43
sg44
(lp661
sg46
(lp662
sg48
g49
sg50
Nsg51
g52
sg53
g54
sg72
g73
sg55
g651
sg56
(lp663
sbag1
(g2
g3
Ntp664
Rp665
(dp666
g7
I0
sg8
Nsg9
(lp667
sg11
I00
sg12
I00
sg13
(lp668
g1
(g15
g16
VHere\u2019s what you need to know to start your day.
p669
tp670
Rp671
(dp672
g8
Nsg21
Nsg22
Nsg23
g665
sg24
Nsbasg24
g671
sg25
(lp673
g665
asg27
I01
sg28
Nsg29
I0
sg21
Nsg30
I0
sg31
I00
sg32
I1
sg22
Nsg33
I1
sg34
Nsg35
Nsg23
Nsg36
g2
sg37
I01
sg38
Nsg39
I0
sg40
(dp674
NNssg42
g43
sg44
(lp675
sg46
(lp676
sg48
g49
sg50
Nsg51
g52
sg53
g54
sg55
g665
sg56
(lp677
sbag1
(g2
g3
Ntp678
Rp679
(dp680
g61
Nsg7
I0
sg8
Nsg9
(lp681
sg11
I00
sg12
I00
sg13
(lp682
g1
(g15
g16
VGov. Andrew M. Cuomo would be the first governor to travel to Cuba since President Obama announced plans to ease relations in December.
p683
tp684
Rp685
(dp686
g8
Nsg21
Nsg22
Nsg23
g679
sg24
Nsbasg24
g685
sg25
(lp687
g679
asg27
I01
sg28
Nsg29
I0
sg21
Nsg30
I0
sg31
I00
sg32
I1
sg22
Nsg33
I1
sg34
Nsg35
Nsg23
Nsg36
g2
sg37
I01
sg38
Nsg39
I0
sg40
(dp688
NNssg42
g43
sg44
(lp689
sg46
(lp690
sg48
g49
sg50
Nsg51
g52
sg53
g54
sg72
g73
sg55
g679
sg56
(lp691
sbag1
(g2
g3
Ntp692
Rp693
(dp694
g61
Nsg7
I0
sg8
Nsg9
(lp695
sg11
I00
sg12
I00
sg13
(lp696
g1
(g15
g16
VNew York Gov. Andrew Cuomo is heading to Havana, the first American governor to visit Cuba since the recent thaw in relations with the communist nation. Whether his trade mission generates anything more than headlines, however, remains to be seen.
p697
tp698
Rp699
(dp700
g8
Nsg21
Nsg22
Nsg23
g693
sg24
Nsbasg24
g699
sg25
(lp701
g693
asg27
I01
sg28
Nsg29
I0
sg21
Nsg30
I0
sg31
I00
sg32
I1
sg22
Nsg33
I1
sg34
Nsg35
Nsg23
Nsg36
g2
sg37
I01
sg38
Nsg39
I0
sg40
(dp702
NNssg42
g43
sg44
(lp703
sg46
(lp704
sg48
g49
sg50
Nsg51
g52
sg53
g54
sg72
g73
sg55
g693
sg56
(lp705
sbag1
(g2
g3
Ntp706
Rp707
(dp708
g61
Nsg7
I0
sg8
Nsg9
(lp709
sg11
I00
sg12
I00
sg13
(lp710
g1
(g15
g16
VThe 1996 ruling, which was kept in place on a tie vote, exempted limited-liability companies from corporate campaign contribution limits, allowing wealthy donors to make huge multiple contributions.
p711
tp712
Rp713
(dp714
g8
Nsg21
Nsg22
Nsg23
g707
sg24
Nsbasg24
g713
sg25
(lp715
g707
asg27
I01
sg28
Nsg29
I0
sg21
Nsg30
I0
sg31
I00
sg32
I1
sg22
Nsg33
I1
sg34
Nsg35
Nsg23
Nsg36
g2
sg37
I01
sg38
Nsg39
I0
sg40
(dp716
NNssg42
g43
sg44
(lp717
sg46
(lp718
sg48
g49
sg50
Nsg51
g52
sg53
g54
sg72
g73
sg55
g707
sg56
(lp719
sba.